target datalayout = "e-m:e-p270:32:32-p271:32:32-p272:64:64-i64:64-i128:128-f80:128-n8:16:32:64-S128"
target triple = "x86_64-pc-linux-gnu"

; Function Attrs: nounwind uwtable
define void @If_CluReverseOrder(ptr noundef %0, i32 noundef %1, ptr noundef %2, ptr noundef %3, i32 noundef %4) #0 {
  %6 = alloca ptr, align 8
  %7 = alloca i32, align 4
  %8 = alloca ptr, align 8
  %9 = alloca ptr, align 8
  %10 = alloca i32, align 4
  %11 = alloca i32, align 4
  %12 = alloca i32, align 4
  %13 = alloca i32, align 4
  store ptr %0, ptr %6, align 8, !tbaa !51
  store i32 %1, ptr %7, align 4, !tbaa !3
  store ptr %2, ptr %8, align 8, !tbaa !21
  store ptr %3, ptr %9, align 8, !tbaa !21
  store i32 %4, ptr %10, align 4, !tbaa !3
  call void @llvm.lifetime.start.p0(i64 4, ptr %11) #11
  call void @llvm.lifetime.start.p0(i64 4, ptr %12) #11
  call void @llvm.lifetime.start.p0(i64 4, ptr %13) #11
  store i32 0, ptr %13, align 4, !tbaa !3
  br label %14

14:                                               ; preds = %35, %5
  %15 = load i32, ptr %13, align 4, !tbaa !3
  %16 = load i32, ptr %7, align 4, !tbaa !3
  %17 = load i32, ptr %10, align 4, !tbaa !3
  %18 = sub nsw i32 %16, %17
  %19 = sdiv i32 %18, 2
  %20 = icmp slt i32 %15, %19
  br i1 %20, label %21, label %38

21:                                               ; preds = %14
  %22 = load i32, ptr %10, align 4, !tbaa !3
  %23 = load i32, ptr %13, align 4, !tbaa !3
  %24 = add nsw i32 %22, %23
  store i32 %24, ptr %11, align 4, !tbaa !3
  %25 = load i32, ptr %7, align 4, !tbaa !3
  %26 = sub nsw i32 %25, 1
  %27 = load i32, ptr %13, align 4, !tbaa !3
  %28 = sub nsw i32 %26, %27
  store i32 %28, ptr %12, align 4, !tbaa !3
  %29 = load ptr, ptr %6, align 8, !tbaa !51
  %30 = load i32, ptr %7, align 4, !tbaa !3
  %31 = load ptr, ptr %8, align 8, !tbaa !21
  %32 = load ptr, ptr %9, align 8, !tbaa !21
  %33 = load i32, ptr %11, align 4, !tbaa !3
  %34 = load i32, ptr %12, align 4, !tbaa !3
  call void @If_CluSwapVars(ptr noundef %29, i32 noundef %30, ptr noundef %31, ptr noundef %32, i32 noundef %33, i32 noundef %34)
  br label %35

35:                                               ; preds = %21
  %36 = load i32, ptr %13, align 4, !tbaa !3
  %37 = add nsw i32 %36, 1
  store i32 %37, ptr %13, align 4, !tbaa !3
  br label %14, !llvm.loop !127

38:                                               ; preds = %14
  call void @llvm.lifetime.end.p0(i64 4, ptr %13) #11
  call void @llvm.lifetime.end.p0(i64 4, ptr %12) #11
  call void @llvm.lifetime.end.p0(i64 4, ptr %11) #11
  ret void
}