; Function Attrs: nofree norecurse nosync nounwind memory(argmem: readwrite) uwtable
define void @If_CluReverseOrder(ptr noundef captures(none) %0, i32 noundef %1, ptr noundef %2, ptr noundef %3, i32 noundef %4) local_unnamed_addr #10 {
  %6 = sub nsw i32 %1, %4
  %7 = sdiv i32 %6, 2
  %8 = icmp sgt i32 %6, 1
  br i1 %8, label %.lr.ph, label %._crit_edge

.lr.ph:                                           ; preds = %5, %.lr.ph
  %.013 = phi i32 [ %12, %.lr.ph ], [ 0, %5 ]
  %9 = add nsw i32 %.013, %4
  %10 = xor i32 %.013, -1
  %11 = add i32 %1, %10
  tail call void @If_CluSwapVars(ptr noundef %0, i32 noundef %1, ptr noundef %2, ptr noundef %3, i32 noundef %9, i32 noundef %11)
  %12 = add nuw nsw i32 %.013, 1
  %exitcond.not = icmp eq i32 %12, %7
  br i1 %exitcond.not, label %._crit_edge, label %.lr.ph, !llvm.loop !134

._crit_edge:                                      ; preds = %.lr.ph, %5
  ret void
}